target datalayout = "e-m:e-p270:32:32-p271:32:32-p272:64:64-i64:64-i128:128-f80:128-n8:16:32:64-S128"
target triple = "x86_64-pc-linux-gnu"

%struct.GCRef = type { i64 }
%struct.MRef = type { i64 }
%union.TValue = type { i64 }
%struct.SBufExt = type { ptr, ptr, ptr, %struct.MRef, %union.anon.2, ptr, %struct.GCRef, %struct.GCRef, i32 }
%union.anon.2 = type { %struct.GCRef }
%struct.GCstr = type { %struct.GCRef, i8, i8, i8, i8, i32, i32, i32 }
%struct.Node = type { %union.TValue, %union.TValue, %struct.MRef }
%struct.lua_State = type { %struct.GCRef, i8, i8, i8, i8, %struct.MRef, %struct.GCRef, ptr, ptr, %struct.MRef, %struct.MRef, %struct.GCRef, %struct.GCRef, ptr, i32 }
%struct.global_State = type { ptr, ptr, %struct.GCState, %struct.GCstr, i8, i8, i8, i8, %struct.StrInternState, i32, %struct.GCRef, %struct.SBuf, %union.TValue, %union.TValue, %struct.Node, %union.TValue, %struct.GCupval, i32, i32, ptr, ptr, ptr, i32, i32, %struct.GCRef, %struct.MRef, %struct.MRef, %struct.PRNGState, [39 x %struct.GCRef] }
%struct.GCState = type { i64, i64, i8, i8, i8, i8, i32, %struct.GCRef, %struct.MRef, %struct.GCRef, %struct.GCRef, %struct.GCRef, %struct.GCRef, i64, i64, i32, i32, %struct.MRef }
%struct.StrInternState = type { ptr, i32, i32, i32, i8, i8, i8, i8, i64 }
%struct.SBuf = type { ptr, ptr, ptr, %struct.MRef }
%struct.GCupval = type { %struct.GCRef, i8, i8, i8, i8, %union.anon, %struct.MRef, i32 }
%union.anon = type { %struct.anon.1 }
%struct.anon.1 = type { %struct.GCRef, %struct.GCRef }
%struct.PRNGState = type { [4 x i64] }

; Function Attrs: alwaysinline nounwind uwtable
define internal void @lj_bufx_set_borrow(ptr noundef %0, ptr noundef %1, ptr noundef %2) #6 {
  %4 = alloca ptr, align 8
  %5 = alloca ptr, align 8
  %6 = alloca ptr, align 8
  store ptr %0, ptr %4, align 8, !tbaa !4
  store ptr %1, ptr %5, align 8, !tbaa !26
  store ptr %2, ptr %6, align 8, !tbaa !76
  %7 = load ptr, ptr %4, align 8, !tbaa !4
  %8 = ptrtoint ptr %7 to i64
  %9 = add i64 %8, 5
  %10 = load ptr, ptr %5, align 8, !tbaa !26
  %11 = getelementptr inbounds nuw %struct.SBufExt, ptr %10, i32 0, i32 3
  %12 = getelementptr inbounds nuw %struct.MRef, ptr %11, i32 0, i32 0
  store i64 %9, ptr %12, align 8, !tbaa !38
  %13 = load ptr, ptr %6, align 8, !tbaa !76
  %14 = ptrtoint ptr %13 to i64
  %15 = load ptr, ptr %5, align 8, !tbaa !26
  %16 = getelementptr inbounds nuw %struct.SBufExt, ptr %15, i32 0, i32 4
  %17 = getelementptr inbounds nuw %struct.MRef, ptr %16, i32 0, i32 0
  store i64 %14, ptr %17, align 8, !tbaa !22
  %18 = load ptr, ptr %6, align 8, !tbaa !76
  %19 = getelementptr inbounds nuw %struct.SBuf, ptr %18, i32 0, i32 2
  %20 = load ptr, ptr %19, align 8, !tbaa !78
  %21 = load ptr, ptr %5, align 8, !tbaa !26
  %22 = getelementptr inbounds nuw %struct.SBufExt, ptr %21, i32 0, i32 2
  store ptr %20, ptr %22, align 8, !tbaa !75
  %23 = load ptr, ptr %5, align 8, !tbaa !26
  %24 = getelementptr inbounds nuw %struct.SBufExt, ptr %23, i32 0, i32 0
  store ptr %20, ptr %24, align 8, !tbaa !31
  %25 = load ptr, ptr %5, align 8, !tbaa !26
  %26 = getelementptr inbounds nuw %struct.SBufExt, ptr %25, i32 0, i32 5
  store ptr %20, ptr %26, align 8, !tbaa !62
  %27 = load ptr, ptr %6, align 8, !tbaa !76
  %28 = getelementptr inbounds nuw %struct.SBuf, ptr %27, i32 0, i32 1
  %29 = load ptr, ptr %28, align 8, !tbaa !79
  %30 = load ptr, ptr %5, align 8, !tbaa !26
  %31 = getelementptr inbounds nuw %struct.SBufExt, ptr %30, i32 0, i32 1
  store ptr %29, ptr %31, align 8, !tbaa !80
  ret void
}

; Function Attrs: nounwind uwtable
define hidden ptr @lj_serialize_encode(ptr noundef %0, ptr noundef %1) #0 {
  %3 = alloca ptr, align 8
  %4 = alloca ptr, align 8
  %5 = alloca %struct.SBufExt, align 8
  %6 = alloca ptr, align 8
  store ptr %0, ptr %3, align 8, !tbaa !4
  store ptr %1, ptr %4, align 8, !tbaa !20
  call void @llvm.lifetime.start.p0(i64 72, ptr %5) #10
  call void @llvm.lifetime.start.p0(i64 8, ptr %6) #10
  call void @llvm.memset.p0.i64(ptr align 8 %5, i8 0, i64 72, i1 false)
  %7 = load ptr, ptr %3, align 8, !tbaa !4
  %8 = load ptr, ptr %3, align 8, !tbaa !4
  %9 = getelementptr inbounds nuw %struct.lua_State, ptr %8, i32 0, i32 5
  %10 = getelementptr inbounds nuw %struct.MRef, ptr %9, i32 0, i32 0
  %11 = load i64, ptr %10, align 8, !tbaa !60
  %12 = inttoptr i64 %11 to ptr
  %13 = getelementptr inbounds nuw %struct.global_State, ptr %12, i32 0, i32 11
  call void @lj_bufx_set_borrow(ptr noundef %7, ptr noundef %5, ptr noundef %13)
  %14 = getelementptr inbounds nuw %struct.SBufExt, ptr %5, i32 0, i32 8
  store i32 100, ptr %14, align 8, !tbaa !28
  %15 = getelementptr inbounds nuw %struct.SBufExt, ptr %5, i32 0, i32 0
  %16 = load ptr, ptr %15, align 8, !tbaa !31
  %17 = load ptr, ptr %4, align 8, !tbaa !20
  %18 = call ptr @serialize_put(ptr noundef %16, ptr noundef %5, ptr noundef %17)
  store ptr %18, ptr %6, align 8, !tbaa !32
  %19 = load ptr, ptr %3, align 8, !tbaa !4
  %20 = getelementptr inbounds nuw %struct.SBufExt, ptr %5, i32 0, i32 2
  %21 = load ptr, ptr %20, align 8, !tbaa !75
  %22 = load ptr, ptr %6, align 8, !tbaa !32
  %23 = getelementptr inbounds nuw %struct.SBufExt, ptr %5, i32 0, i32 2
  %24 = load ptr, ptr %23, align 8, !tbaa !75
  %25 = ptrtoint ptr %22 to i64
  %26 = ptrtoint ptr %24 to i64
  %27 = sub i64 %25, %26
  %28 = call ptr @lj_str_new(ptr noundef %19, ptr noundef %21, i64 noundef %27)
  call void @llvm.lifetime.end.p0(i64 8, ptr %6) #10
  call void @llvm.lifetime.end.p0(i64 72, ptr %5) #10
  ret ptr %28
}