; Function Attrs: nounwind uwtable
define hidden ptr @lj_serialize_encode(ptr noundef %0, ptr noundef readonly captures(none) %1) local_unnamed_addr #0 {
  %3 = alloca %struct.SBufExt, align 8
  call void @llvm.lifetime.start.p0(i64 72, ptr nonnull %3) #11
  %4 = getelementptr inbounds nuw i8, ptr %3, i64 48
  call void @llvm.memset.p0.i64(ptr noundef nonnull align 8 dereferenceable(72) %4, i8 0, i64 24, i1 false)
  %5 = getelementptr inbounds nuw i8, ptr %0, i64 16
  %6 = load i64, ptr %5, align 8, !tbaa !40
  %7 = inttoptr i64 %6 to ptr
  %8 = getelementptr inbounds nuw i8, ptr %7, i64 200
  %9 = ptrtoint ptr %0 to i64
  %10 = add i64 %9, 5
  %11 = getelementptr inbounds nuw i8, ptr %3, i64 24
  store i64 %10, ptr %11, align 8, !tbaa !28
  %12 = ptrtoint ptr %8 to i64
  %13 = getelementptr inbounds nuw i8, ptr %3, i64 32
  store i64 %12, ptr %13, align 8, !tbaa !14
  %14 = getelementptr inbounds nuw i8, ptr %7, i64 216
  %15 = load ptr, ptr %14, align 8, !tbaa !76
  %16 = getelementptr inbounds nuw i8, ptr %3, i64 16
  store ptr %15, ptr %16, align 8, !tbaa !77
  store ptr %15, ptr %3, align 8, !tbaa !22
  %17 = getelementptr inbounds nuw i8, ptr %3, i64 40
  store ptr %15, ptr %17, align 8, !tbaa !69
  %18 = getelementptr inbounds nuw i8, ptr %7, i64 208
  %19 = load ptr, ptr %18, align 8, !tbaa !78
  %20 = getelementptr inbounds nuw i8, ptr %3, i64 8
  store ptr %19, ptr %20, align 8, !tbaa !26
  %21 = getelementptr inbounds nuw i8, ptr %3, i64 64
  store i32 100, ptr %21, align 8, !tbaa !18
  %22 = call fastcc ptr @serialize_put(ptr noundef %15, ptr noundef nonnull %3, ptr noundef %1)
  %23 = load ptr, ptr %16, align 8, !tbaa !77
  %24 = ptrtoint ptr %22 to i64
  %25 = ptrtoint ptr %23 to i64
  %26 = sub i64 %24, %25
  %27 = call ptr @lj_str_new(ptr noundef %0, ptr noundef %23, i64 noundef %26) #11
  call void @llvm.lifetime.end.p0(i64 72, ptr nonnull %3) #11
  ret ptr %27
}